; Function Attrs: mustprogress uwtable
define void @_ZN5faiss8IndexIVF5resetEv(ptr noundef nonnull align 8 dereferenceable(265) %0) unnamed_addr #0 align 2 {
  %2 = getelementptr inbounds nuw i8, ptr %0, i64 176
  tail call void @_ZN5faiss9DirectMap5clearEv(ptr noundef nonnull align 8 dereferenceable(88) %2)
  %3 = getelementptr inbounds nuw i8, ptr %0, i64 144
  %4 = load ptr, ptr %3, align 8, !tbaa !97
  %5 = load ptr, ptr %4, align 8, !tbaa !14
  %6 = getelementptr inbounds nuw i8, ptr %5, i64 136
  %7 = load ptr, ptr %6, align 8
  tail call void %7(ptr noundef nonnull align 8 dereferenceable(25) %4)
  %8 = getelementptr inbounds nuw i8, ptr %0, i64 16
  store i64 0, ptr %8, align 8, !tbaa !98
  ret void
}